; Function Attrs: mustprogress nofree norecurse nounwind willreturn memory(argmem: readwrite) uwtable
define hidden void @_mi_stat_adjust_decrease(ptr noundef %0, i64 noundef %1) local_unnamed_addr #0 {
  %3 = sub nsw i64 0, %1
  %4 = icmp eq i64 %1, 0
  br i1 %4, label %mi_stat_adjust.exit, label %5

5:                                                ; preds = %2
  %6 = icmp uge ptr %0, @_mi_stats_main
  %7 = icmp ult ptr %0, getelementptr inbounds nuw (i8, ptr @_mi_stats_main, i64 704)
  %8 = select i1 %6, i1 %7, i1 false
  %9 = getelementptr inbounds nuw i8, ptr %0, i64 24
  br i1 %8, label %10, label %15, !prof !9

10:                                               ; preds = %5
  %11 = atomicrmw add ptr %9, i64 %3 monotonic, align 8
  %12 = atomicrmw add ptr %0, i64 %3 monotonic, align 8
  %13 = getelementptr inbounds nuw i8, ptr %0, i64 8
  %14 = atomicrmw add ptr %13, i64 %3 monotonic, align 8
  br label %mi_stat_adjust.exit

15:                                               ; preds = %5
  %16 = load i64, ptr %9, align 8, !tbaa !12
  %17 = sub nsw i64 %16, %1
  store i64 %17, ptr %9, align 8, !tbaa !12
  %18 = load i64, ptr %0, align 8, !tbaa !15
  %19 = sub nsw i64 %18, %1
  store i64 %19, ptr %0, align 8, !tbaa !15
  %20 = getelementptr inbounds nuw i8, ptr %0, i64 8
  %21 = load i64, ptr %20, align 8, !tbaa !16
  %22 = sub nsw i64 %21, %1
  store i64 %22, ptr %20, align 8, !tbaa !16
  br label %mi_stat_adjust.exit

mi_stat_adjust.exit:                              ; preds = %2, %10, %15
  ret void
}